; Function Attrs: mustprogress uwtable
define hidden void @_ZN4lean23lean_uv_timer_finalizerEPv(ptr noundef captures(none) %0) #0 {
  %2 = getelementptr inbounds nuw i8, ptr %0, i64 8
  %3 = load ptr, ptr %2, align 8, !tbaa !3
  %.not = icmp eq ptr %3, null
  %4 = ptrtoint ptr %3 to i64
  %5 = and i64 %4, 1
  %6 = icmp ne i64 %5, 0
  %or.cond = or i1 %.not, %6
  br i1 %or.cond, label %_ZL8lean_decP11lean_object.exit, label %7

7:                                                ; preds = %1
  %8 = load i32, ptr %3, align 4, !tbaa !12
  %9 = icmp sgt i32 %8, 1
  br i1 %9, label %10, label %12, !prof !15

10:                                               ; preds = %7
  %11 = add nsw i32 %8, -1
  store i32 %11, ptr %3, align 4, !tbaa !12
  br label %_ZL8lean_decP11lean_object.exit

12:                                               ; preds = %7
  %.not.i = icmp eq i32 %8, 0
  br i1 %.not.i, label %_ZL8lean_decP11lean_object.exit, label %13

13:                                               ; preds = %12
  tail call void @lean_dec_ref_cold(ptr noundef nonnull %3)
  br label %_ZL8lean_decP11lean_object.exit

_ZL8lean_decP11lean_object.exit:                  ; preds = %10, %12, %13, %1
  tail call void @_ZN4lean15event_loop_lockEPNS_12event_loop_tE(ptr noundef nonnull @_ZN4lean9global_evE)
  %14 = load ptr, ptr %0, align 8, !tbaa !16
  tail call void @uv_close(ptr noundef %14, ptr noundef nonnull @"_ZZN4lean23lean_uv_timer_finalizerEPvEN3$_08__invokeEP11uv_handle_s")
  tail call void @_ZN4lean17event_loop_unlockEPNS_12event_loop_tE(ptr noundef nonnull @_ZN4lean9global_evE)
  tail call void @free(ptr noundef nonnull %0) #8
  ret void
}